target datalayout = "e-m:e-p270:32:32-p271:32:32-p272:64:64-i64:64-i128:128-f80:128-n8:16:32:64-S128"
target triple = "x86_64-pc-linux-gnu"

%struct.lua_State = type { i8, i8, i8, i8, i8, i8, i8, ptr, ptr, ptr, ptr, ptr, ptr, ptr, ptr, i32, i32, i16, i16, i32, ptr, ptr, ptr, ptr, ptr }
%struct.global_State = type { %struct.stringtable, ptr, ptr, i8, i8, ptr, ptr, ptr, i64, i64, i32, i32, i32, [40 x ptr], [40 x ptr], ptr, ptr, ptr, [256 x i64], ptr, %struct.UpVal, [11 x ptr], [11 x ptr], [21 x ptr], %struct.lua_TValue, %struct.lua_TValue, i32, ptr, i64, [4 x i64], %struct.lua_Callbacks, %struct.lua_ExecutionCallbacks, [128 x ptr], [128 x ptr], [128 x ptr], %struct.GCStats }
%struct.stringtable = type { ptr, i32, i32 }
%struct.UpVal = type { i8, i8, i8, i8, ptr, %union.anon }
%union.anon = type { %struct.anon }
%struct.anon = type { ptr, ptr, ptr }
%struct.lua_TValue = type { %union.Value, [1 x i32], i32 }
%union.Value = type { ptr }
%struct.lua_Callbacks = type { ptr, ptr, ptr, ptr, ptr, ptr, ptr, ptr, ptr }
%struct.lua_ExecutionCallbacks = type { ptr, ptr, ptr, ptr, ptr, ptr, ptr }
%struct.GCStats = type { [32 x i32], i32, i32, i64, i64, i64, double, double, double }

; Function Attrs: mustprogress nounwind uwtable
define internal noundef i64 @_ZL25getheaptriggererroroffsetP12global_State(ptr noundef %0) #2 {
  %2 = alloca ptr, align 8
  %3 = alloca i32, align 4
  %4 = alloca i64, align 8
  %5 = alloca ptr, align 8
  %6 = alloca i32, align 4
  %7 = alloca double, align 8
  %8 = alloca double, align 8
  %9 = alloca double, align 8
  %10 = alloca double, align 8
  %11 = alloca double, align 8
  %12 = alloca double, align 8
  %13 = alloca double, align 8
  %14 = alloca double, align 8
  store ptr %0, ptr %2, align 8
  %15 = load ptr, ptr %2, align 8
  %16 = getelementptr inbounds %struct.global_State, ptr %15, i32 0, i32 35
  %17 = getelementptr inbounds %struct.GCStats, ptr %16, i32 0, i32 3
  %18 = load i64, ptr %17, align 8
  %19 = load ptr, ptr %2, align 8
  %20 = getelementptr inbounds %struct.global_State, ptr %19, i32 0, i32 35
  %21 = getelementptr inbounds %struct.GCStats, ptr %20, i32 0, i32 5
  %22 = load i64, ptr %21, align 8
  %23 = sub i64 %18, %22
  %24 = udiv i64 %23, 1024
  %25 = trunc i64 %24 to i32
  store i32 %25, ptr %3, align 4
  store i64 32, ptr %4, align 8
  %26 = load ptr, ptr %2, align 8
  %27 = getelementptr inbounds %struct.global_State, ptr %26, i32 0, i32 35
  %28 = getelementptr inbounds %struct.GCStats, ptr %27, i32 0, i32 0
  %29 = load ptr, ptr %2, align 8
  %30 = getelementptr inbounds %struct.global_State, ptr %29, i32 0, i32 35
  %31 = getelementptr inbounds %struct.GCStats, ptr %30, i32 0, i32 1
  %32 = load i32, ptr %31, align 8
  %33 = zext i32 %32 to i64
  %34 = urem i64 %33, 32
  %35 = getelementptr inbounds [32 x i32], ptr %28, i64 0, i64 %34
  store ptr %35, ptr %5, align 8
  %36 = load ptr, ptr %5, align 8
  %37 = load i32, ptr %36, align 4
  store i32 %37, ptr %6, align 4
  %38 = load i32, ptr %3, align 4
  %39 = load ptr, ptr %5, align 8
  store i32 %38, ptr %39, align 4
  %40 = load i32, ptr %3, align 4
  %41 = load i32, ptr %6, align 4
  %42 = sub nsw i32 %40, %41
  %43 = load ptr, ptr %2, align 8
  %44 = getelementptr inbounds %struct.global_State, ptr %43, i32 0, i32 35
  %45 = getelementptr inbounds %struct.GCStats, ptr %44, i32 0, i32 2
  %46 = load i32, ptr %45, align 4
  %47 = add nsw i32 %46, %42
  store i32 %47, ptr %45, align 4
  %48 = load ptr, ptr %2, align 8
  %49 = getelementptr inbounds %struct.global_State, ptr %48, i32 0, i32 35
  %50 = getelementptr inbounds %struct.GCStats, ptr %49, i32 0, i32 1
  %51 = load i32, ptr %50, align 8
  %52 = add i32 %51, 1
  store i32 %52, ptr %50, align 8
  store double 9.000000e-01, ptr %7, align 8
  store double 2.500000e+00, ptr %8, align 8
  store double 4.050000e-01, ptr %9, align 8
  store double 2.000000e+00, ptr %10, align 8
  store double 0x3FCF1A9FBE76C8B5, ptr %11, align 8
  %53 = load i32, ptr %3, align 4
  %54 = sitofp i32 %53 to double
  %55 = fmul double 4.050000e-01, %54
  store double %55, ptr %12, align 8
  %56 = load ptr, ptr %2, align 8
  %57 = getelementptr inbounds %struct.global_State, ptr %56, i32 0, i32 35
  %58 = getelementptr inbounds %struct.GCStats, ptr %57, i32 0, i32 2
  %59 = load i32, ptr %58, align 4
  %60 = sitofp i32 %59 to double
  %61 = fmul double 0x3FCF1A9FBE76C8B5, %60
  store double %61, ptr %13, align 8
  %62 = load double, ptr %12, align 8
  %63 = load double, ptr %13, align 8
  %64 = fadd double %62, %63
  store double %64, ptr %14, align 8
  %65 = load double, ptr %14, align 8
  %66 = fmul double %65, 1.024000e+03
  %67 = fptosi double %66 to i64
  ret i64 %67
}

; Function Attrs: mustprogress uwtable
define internal noundef i64 @_ZL14getheaptriggerP12global_Statem(ptr noundef %0, i64 noundef %1) #0 {
  %3 = alloca i64, align 8
  %4 = alloca ptr, align 8
  %5 = alloca i64, align 8
  %6 = alloca double, align 8
  %7 = alloca double, align 8
  %8 = alloca double, align 8
  %9 = alloca double, align 8
  %10 = alloca i64, align 8
  %11 = alloca i64, align 8
  %12 = alloca i64, align 8
  store ptr %0, ptr %4, align 8
  store i64 %1, ptr %5, align 8
  store double 1.000000e-03, ptr %6, align 8
  %13 = load ptr, ptr %4, align 8
  %14 = getelementptr inbounds %struct.global_State, ptr %13, i32 0, i32 35
  %15 = getelementptr inbounds %struct.GCStats, ptr %14, i32 0, i32 7
  %16 = load double, ptr %15, align 8
  %17 = load ptr, ptr %4, align 8
  %18 = getelementptr inbounds %struct.global_State, ptr %17, i32 0, i32 35
  %19 = getelementptr inbounds %struct.GCStats, ptr %18, i32 0, i32 8
  %20 = load double, ptr %19, align 8
  %21 = fsub double %16, %20
  store double %21, ptr %7, align 8
  %22 = load double, ptr %7, align 8
  %23 = fcmp olt double %22, 1.000000e-03
  br i1 %23, label %24, label %26

24:                                               ; preds = %2
  %25 = load i64, ptr %5, align 8
  store i64 %25, ptr %3, align 8
  br label %80

26:                                               ; preds = %2
  %27 = load ptr, ptr %4, align 8
  %28 = getelementptr inbounds %struct.global_State, ptr %27, i32 0, i32 35
  %29 = getelementptr inbounds %struct.GCStats, ptr %28, i32 0, i32 3
  %30 = load i64, ptr %29, align 8
  %31 = load ptr, ptr %4, align 8
  %32 = getelementptr inbounds %struct.global_State, ptr %31, i32 0, i32 35
  %33 = getelementptr inbounds %struct.GCStats, ptr %32, i32 0, i32 4
  %34 = load i64, ptr %33, align 8
  %35 = sub i64 %30, %34
  %36 = uitofp i64 %35 to double
  %37 = load double, ptr %7, align 8
  %38 = fdiv double %36, %37
  store double %38, ptr %8, align 8
  %39 = load ptr, ptr %4, align 8
  %40 = getelementptr inbounds %struct.global_State, ptr %39, i32 0, i32 35
  %41 = getelementptr inbounds %struct.GCStats, ptr %40, i32 0, i32 7
  %42 = load double, ptr %41, align 8
  %43 = load ptr, ptr %4, align 8
  %44 = getelementptr inbounds %struct.global_State, ptr %43, i32 0, i32 35
  %45 = getelementptr inbounds %struct.GCStats, ptr %44, i32 0, i32 6
  %46 = load double, ptr %45, align 8
  %47 = fsub double %42, %46
  store double %47, ptr %9, align 8
  %48 = load double, ptr %9, align 8
  %49 = load double, ptr %8, align 8
  %50 = fmul double %48, %49
  %51 = fptosi double %50 to i64
  store i64 %51, ptr %10, align 8
  %52 = load ptr, ptr %4, align 8
  %53 = call noundef i64 @_ZL25getheaptriggererroroffsetP12global_State(ptr noundef %52)
  store i64 %53, ptr %11, align 8
  %54 = load i64, ptr %5, align 8
  %55 = load i64, ptr %10, align 8
  %56 = load i64, ptr %11, align 8
  %57 = add nsw i64 %55, %56
  %58 = sub i64 %54, %57
  store i64 %58, ptr %12, align 8
  %59 = load i64, ptr %12, align 8
  %60 = load ptr, ptr %4, align 8
  %61 = getelementptr inbounds %struct.global_State, ptr %60, i32 0, i32 9
  %62 = load i64, ptr %61, align 8
  %63 = icmp slt i64 %59, %62
  br i1 %63, label %64, label %68

64:                                               ; preds = %26
  %65 = load ptr, ptr %4, align 8
  %66 = getelementptr inbounds %struct.global_State, ptr %65, i32 0, i32 9
  %67 = load i64, ptr %66, align 8
  br label %78

68:                                               ; preds = %26
  %69 = load i64, ptr %12, align 8
  %70 = load i64, ptr %5, align 8
  %71 = icmp sgt i64 %69, %70
  br i1 %71, label %72, label %74

72:                                               ; preds = %68
  %73 = load i64, ptr %5, align 8
  br label %76

74:                                               ; preds = %68
  %75 = load i64, ptr %12, align 8
  br label %76

76:                                               ; preds = %74, %72
  %77 = phi i64 [ %73, %72 ], [ %75, %74 ]
  br label %78

78:                                               ; preds = %76, %64
  %79 = phi i64 [ %67, %64 ], [ %77, %76 ]
  store i64 %79, ptr %3, align 8
  br label %80

80:                                               ; preds = %78, %24
  %81 = load i64, ptr %3, align 8
  ret i64 %81
}

; Function Attrs: mustprogress uwtable
define hidden noundef i64 @_Z9luaC_stepP9lua_Stateb(ptr noundef %0, i1 noundef zeroext %1) #0 {
  %3 = alloca ptr, align 8
  %4 = alloca i8, align 1
  %5 = alloca ptr, align 8
  %6 = alloca i32, align 4
  %7 = alloca i64, align 8
  %8 = alloca ptr, align 8
  %9 = alloca i32, align 4
  %10 = alloca i64, align 8
  %11 = alloca i64, align 8
  %12 = alloca i64, align 8
  %13 = alloca i64, align 8
  %14 = alloca ptr, align 8
  store ptr %0, ptr %3, align 8
  %15 = zext i1 %1 to i8
  store i8 %15, ptr %4, align 1
  %16 = load ptr, ptr %3, align 8
  %17 = getelementptr inbounds %struct.lua_State, ptr %16, i32 0, i32 9
  %18 = load ptr, ptr %17, align 8
  store ptr %18, ptr %5, align 8
  %19 = load ptr, ptr %5, align 8
  %20 = getelementptr inbounds %struct.global_State, ptr %19, i32 0, i32 12
  %21 = load i32, ptr %20, align 8
  %22 = load ptr, ptr %5, align 8
  %23 = getelementptr inbounds %struct.global_State, ptr %22, i32 0, i32 11
  %24 = load i32, ptr %23, align 4
  %25 = mul nsw i32 %21, %24
  %26 = sdiv i32 %25, 100
  store i32 %26, ptr %6, align 4
  %27 = load ptr, ptr %5, align 8
  %28 = getelementptr inbounds %struct.global_State, ptr %27, i32 0, i32 9
  %29 = load i64, ptr %28, align 8
  %30 = load ptr, ptr %5, align 8
  %31 = getelementptr inbounds %struct.global_State, ptr %30, i32 0, i32 8
  %32 = load i64, ptr %31, align 8
  %33 = sub i64 %29, %32
  store i64 %33, ptr %7, align 8
  %34 = load ptr, ptr %5, align 8
  %35 = getelementptr inbounds %struct.global_State, ptr %34, i32 0, i32 30
  %36 = getelementptr inbounds %struct.lua_Callbacks, ptr %35, i32 0, i32 1
  %37 = load ptr, ptr %36, align 8
  store ptr %37, ptr %8, align 8
  %38 = load ptr, ptr %8, align 8
  %39 = icmp ne ptr %38, null
  %40 = xor i1 %39, true
  %41 = xor i1 %40, true
  br i1 %41, label %42, label %45

42:                                               ; preds = %2
  %43 = load ptr, ptr %8, align 8
  %44 = load ptr, ptr %3, align 8
  call void %43(ptr noundef %44, i32 noundef 0)
  br label %45

45:                                               ; preds = %42, %2
  %46 = load ptr, ptr %5, align 8
  %47 = getelementptr inbounds %struct.global_State, ptr %46, i32 0, i32 4
  %48 = load i8, ptr %47, align 1
  %49 = zext i8 %48 to i32
  %50 = icmp eq i32 %49, 0
  br i1 %50, label %51, label %56

51:                                               ; preds = %45
  %52 = call noundef double @_Z9lua_clockv()
  %53 = load ptr, ptr %5, align 8
  %54 = getelementptr inbounds %struct.global_State, ptr %53, i32 0, i32 35
  %55 = getelementptr inbounds %struct.GCStats, ptr %54, i32 0, i32 6
  store double %52, ptr %55, align 8
  br label %56

56:                                               ; preds = %51, %45
  %57 = load ptr, ptr %5, align 8
  %58 = getelementptr inbounds %struct.global_State, ptr %57, i32 0, i32 4
  %59 = load i8, ptr %58, align 1
  %60 = zext i8 %59 to i32
  store i32 %60, ptr %9, align 4
  %61 = load ptr, ptr %3, align 8
  %62 = load i32, ptr %6, align 4
  %63 = sext i32 %62 to i64
  %64 = call noundef i64 @_ZL6gcstepP9lua_Statem(ptr noundef %61, i64 noundef %63)
  store i64 %64, ptr %10, align 8
  %65 = load i64, ptr %10, align 8
  %66 = mul i64 %65, 100
  %67 = load ptr, ptr %5, align 8
  %68 = getelementptr inbounds %struct.global_State, ptr %67, i32 0, i32 11
  %69 = load i32, ptr %68, align 4
  %70 = sext i32 %69 to i64
  %71 = udiv i64 %66, %70
  store i64 %71, ptr %11, align 8
  %72 = load ptr, ptr %5, align 8
  %73 = getelementptr inbounds %struct.global_State, ptr %72, i32 0, i32 4
  %74 = load i8, ptr %73, align 1
  %75 = zext i8 %74 to i32
  %76 = icmp eq i32 %75, 0
  br i1 %76, label %77, label %107

77:                                               ; preds = %56
  %78 = load ptr, ptr %5, align 8
  %79 = getelementptr inbounds %struct.global_State, ptr %78, i32 0, i32 9
  %80 = load i64, ptr %79, align 8
  %81 = udiv i64 %80, 100
  %82 = load ptr, ptr %5, align 8
  %83 = getelementptr inbounds %struct.global_State, ptr %82, i32 0, i32 10
  %84 = load i32, ptr %83, align 8
  %85 = sext i32 %84 to i64
  %86 = mul i64 %81, %85
  store i64 %86, ptr %12, align 8
  %87 = load ptr, ptr %5, align 8
  %88 = load i64, ptr %12, align 8
  %89 = call noundef i64 @_ZL14getheaptriggerP12global_Statem(ptr noundef %87, i64 noundef %88)
  store i64 %89, ptr %13, align 8
  %90 = load i64, ptr %13, align 8
  %91 = load ptr, ptr %5, align 8
  %92 = getelementptr inbounds %struct.global_State, ptr %91, i32 0, i32 8
  store i64 %90, ptr %92, align 8
  %93 = load i64, ptr %12, align 8
  %94 = load ptr, ptr %5, align 8
  %95 = getelementptr inbounds %struct.global_State, ptr %94, i32 0, i32 35
  %96 = getelementptr inbounds %struct.GCStats, ptr %95, i32 0, i32 5
  store i64 %93, ptr %96, align 8
  %97 = call noundef double @_Z9lua_clockv()
  %98 = load ptr, ptr %5, align 8
  %99 = getelementptr inbounds %struct.global_State, ptr %98, i32 0, i32 35
  %100 = getelementptr inbounds %struct.GCStats, ptr %99, i32 0, i32 8
  store double %97, ptr %100, align 8
  %101 = load ptr, ptr %5, align 8
  %102 = getelementptr inbounds %struct.global_State, ptr %101, i32 0, i32 9
  %103 = load i64, ptr %102, align 8
  %104 = load ptr, ptr %5, align 8
  %105 = getelementptr inbounds %struct.global_State, ptr %104, i32 0, i32 35
  %106 = getelementptr inbounds %struct.GCStats, ptr %105, i32 0, i32 4
  store i64 %103, ptr %106, align 8
  br label %127

107:                                              ; preds = %56
  %108 = load ptr, ptr %5, align 8
  %109 = getelementptr inbounds %struct.global_State, ptr %108, i32 0, i32 9
  %110 = load i64, ptr %109, align 8
  %111 = load i64, ptr %11, align 8
  %112 = add i64 %110, %111
  %113 = load ptr, ptr %5, align 8
  %114 = getelementptr inbounds %struct.global_State, ptr %113, i32 0, i32 8
  store i64 %112, ptr %114, align 8
  %115 = load ptr, ptr %5, align 8
  %116 = getelementptr inbounds %struct.global_State, ptr %115, i32 0, i32 8
  %117 = load i64, ptr %116, align 8
  %118 = load i64, ptr %7, align 8
  %119 = icmp uge i64 %117, %118
  br i1 %119, label %120, label %126

120:                                              ; preds = %107
  %121 = load i64, ptr %7, align 8
  %122 = load ptr, ptr %5, align 8
  %123 = getelementptr inbounds %struct.global_State, ptr %122, i32 0, i32 8
  %124 = load i64, ptr %123, align 8
  %125 = sub i64 %124, %121
  store i64 %125, ptr %123, align 8
  br label %126

126:                                              ; preds = %120, %107
  br label %127

127:                                              ; preds = %126, %77
  %128 = load ptr, ptr %5, align 8
  %129 = getelementptr inbounds %struct.global_State, ptr %128, i32 0, i32 30
  %130 = getelementptr inbounds %struct.lua_Callbacks, ptr %129, i32 0, i32 1
  %131 = load ptr, ptr %130, align 8
  store ptr %131, ptr %14, align 8
  %132 = load ptr, ptr %14, align 8
  %133 = icmp ne ptr %132, null
  %134 = xor i1 %133, true
  %135 = xor i1 %134, true
  br i1 %135, label %136, label %140

136:                                              ; preds = %127
  %137 = load ptr, ptr %14, align 8
  %138 = load ptr, ptr %3, align 8
  %139 = load i32, ptr %9, align 4
  call void %137(ptr noundef %138, i32 noundef %139)
  br label %140

140:                                              ; preds = %136, %127
  %141 = load i64, ptr %11, align 8
  ret i64 %141
}