; Function Attrs: mustprogress uwtable
define hidden noundef i64 @_Z9luaC_stepP9lua_Stateb(ptr noundef %0, i1 noundef zeroext %1) local_unnamed_addr #0 {
  %3 = getelementptr inbounds i8, ptr %0, i64 24
  %4 = load ptr, ptr %3, align 8
  %5 = getelementptr inbounds i8, ptr %4, i64 88
  %6 = load i32, ptr %5, align 8
  %7 = getelementptr inbounds i8, ptr %4, i64 84
  %8 = load i32, ptr %7, align 4
  %9 = mul nsw i32 %8, %6
  %10 = sdiv i32 %9, 100
  %11 = getelementptr inbounds i8, ptr %4, i64 72
  %12 = load i64, ptr %11, align 8
  %13 = getelementptr inbounds i8, ptr %4, i64 64
  %14 = load i64, ptr %13, align 8
  %15 = sub i64 %12, %14
  %16 = getelementptr inbounds i8, ptr %4, i64 3296
  %17 = load ptr, ptr %16, align 8
  %.not = icmp eq ptr %17, null
  br i1 %.not, label %19, label %18

18:                                               ; preds = %2
  tail call void %17(ptr noundef nonnull %0, i32 noundef 0)
  br label %19

19:                                               ; preds = %18, %2
  %20 = getelementptr inbounds i8, ptr %4, i64 33
  %21 = load i8, ptr %20, align 1
  %22 = icmp eq i8 %21, 0
  br i1 %22, label %23, label %26

23:                                               ; preds = %19
  %24 = tail call noundef double @_Z9lua_clockv()
  %25 = getelementptr inbounds i8, ptr %4, i64 6648
  store double %24, ptr %25, align 8
  %.pre = load i8, ptr %20, align 1
  br label %26

26:                                               ; preds = %23, %19
  %27 = phi i8 [ %.pre, %23 ], [ %21, %19 ]
  %28 = zext i8 %27 to i32
  %29 = sext i32 %10 to i64
  %30 = tail call fastcc noundef i64 @_ZL6gcstepP9lua_Statem(ptr noundef nonnull %0, i64 noundef %29)
  %31 = mul i64 %30, 100
  %32 = load i32, ptr %7, align 4
  %33 = sext i32 %32 to i64
  %34 = udiv i64 %31, %33
  %35 = load i8, ptr %20, align 1
  %36 = icmp eq i8 %35, 0
  %37 = load i64, ptr %11, align 8
  br i1 %36, label %38, label %96

38:                                               ; preds = %26
  %39 = udiv i64 %37, 100
  %40 = getelementptr inbounds i8, ptr %4, i64 80
  %41 = load i32, ptr %40, align 8
  %42 = sext i32 %41 to i64
  %43 = mul i64 %39, %42
  %44 = getelementptr inbounds i8, ptr %4, i64 6656
  %45 = load double, ptr %44, align 8
  %46 = getelementptr inbounds i8, ptr %4, i64 6664
  %47 = load double, ptr %46, align 8
  %48 = fsub double %45, %47
  %49 = fcmp olt double %48, 1.000000e-03
  br i1 %49, label %_ZL14getheaptriggerP12global_Statem.exit, label %50

50:                                               ; preds = %38
  %51 = getelementptr inbounds i8, ptr %4, i64 6624
  %52 = load i64, ptr %51, align 8
  %53 = getelementptr inbounds i8, ptr %4, i64 6632
  %54 = load i64, ptr %53, align 8
  %55 = sub i64 %52, %54
  %56 = uitofp i64 %55 to double
  %57 = fdiv double %56, %48
  %58 = getelementptr inbounds i8, ptr %4, i64 6648
  %59 = load double, ptr %58, align 8
  %60 = fsub double %45, %59
  %61 = fmul double %60, %57
  %62 = fptosi double %61 to i64
  %63 = getelementptr inbounds i8, ptr %4, i64 6488
  %64 = getelementptr inbounds i8, ptr %4, i64 6640
  %65 = load i64, ptr %64, align 8
  %66 = sub i64 %52, %65
  %67 = lshr i64 %66, 10
  %68 = trunc i64 %67 to i32
  %69 = getelementptr inbounds i8, ptr %4, i64 6616
  %70 = load i32, ptr %69, align 8
  %71 = and i32 %70, 31
  %72 = zext nneg i32 %71 to i64
  %73 = getelementptr inbounds [32 x i32], ptr %63, i64 0, i64 %72
  %74 = load i32, ptr %73, align 4
  store i32 %68, ptr %73, align 4
  %75 = sub nsw i32 %68, %74
  %76 = getelementptr inbounds i8, ptr %4, i64 6620
  %77 = load i32, ptr %76, align 4
  %78 = add nsw i32 %77, %75
  store i32 %78, ptr %76, align 4
  %79 = add i32 %70, 1
  store i32 %79, ptr %69, align 8
  %80 = sitofp i32 %68 to double
  %81 = fmul double %80, 4.050000e-01
  %82 = sitofp i32 %78 to double
  %83 = fmul double %82, 0x3FCF1A9FBE76C8B5
  %84 = fadd double %81, %83
  %85 = fmul double %84, 1.024000e+03
  %86 = fptosi double %85 to i64
  %87 = add i64 %62, %86
  %88 = sub i64 %43, %87
  %89 = icmp slt i64 %88, %37
  %90 = tail call i64 @llvm.smin.i64(i64 %88, i64 %43)
  %91 = select i1 %89, i64 %37, i64 %90
  br label %_ZL14getheaptriggerP12global_Statem.exit

_ZL14getheaptriggerP12global_Statem.exit:         ; preds = %38, %50
  %.0.i = phi i64 [ %91, %50 ], [ %43, %38 ]
  store i64 %.0.i, ptr %13, align 8
  %92 = getelementptr inbounds i8, ptr %4, i64 6640
  store i64 %43, ptr %92, align 8
  %93 = tail call noundef double @_Z9lua_clockv()
  store double %93, ptr %46, align 8
  %94 = load i64, ptr %11, align 8
  %95 = getelementptr inbounds i8, ptr %4, i64 6632
  store i64 %94, ptr %95, align 8
  br label %100

96:                                               ; preds = %26
  %97 = add i64 %37, %34
  store i64 %97, ptr %13, align 8
  %.not43 = icmp ult i64 %97, %15
  br i1 %.not43, label %100, label %98

98:                                               ; preds = %96
  %99 = sub i64 %97, %15
  store i64 %99, ptr %13, align 8
  br label %100

100:                                              ; preds = %96, %98, %_ZL14getheaptriggerP12global_Statem.exit
  %101 = load ptr, ptr %16, align 8
  %.not44 = icmp eq ptr %101, null
  br i1 %.not44, label %103, label %102

102:                                              ; preds = %100
  tail call void %101(ptr noundef nonnull %0, i32 noundef %28)
  br label %103

103:                                              ; preds = %102, %100
  ret i64 %34
}